target datalayout = "e-m:e-p270:32:32-p271:32:32-p272:64:64-i64:64-i128:128-f80:128-n8:16:32:64-S128"
target triple = "x86_64-unknown-linux-gnu"

%struct.SCSISense = type { i8, i8, i8 }
%struct.SCSIDiskState = type { %struct.SCSIDevice, i32, i8, i8, i8, i16, i64, i64, i32, ptr, ptr, ptr, ptr, ptr, ptr, i8, i8, i16 }
%struct.SCSIDevice = type { %struct.DeviceState, ptr, ptr, i32, %struct.BlockConf, %struct.SCSISense, i8, [252 x i8], i32, %union.anon, i32, i32, i32, i32, i64, i64, i64, i32, i32, i32, i8, i8 }
%struct.DeviceState = type { %struct.Object, ptr, ptr, i8, i8, i64, ptr, i32, i8, ptr, %struct.NamedGPIOListHead, %struct.NamedClockListHead, %struct.BusStateHead, i32, i32, i32, %struct.ResettableState, ptr, %struct.MemReentrancyGuard }
%struct.Object = type { ptr, ptr, ptr, i32, ptr }
%struct.NamedGPIOListHead = type { ptr }
%struct.NamedClockListHead = type { ptr }
%struct.BusStateHead = type { ptr }
%struct.ResettableState = type { i32, i8, i8 }
%struct.MemReentrancyGuard = type { i8 }
%struct.BlockConf = type { ptr, i32, i32, i32, i32, i32, i32, i32, i32, i32, i32, i32, i32, i32, i32, i8, i32, i32, i32, i32 }
%union.anon = type { %struct.QTailQLink }
%struct.QTailQLink = type { ptr, ptr }
%struct.SCSIDiskReq = type { %struct.SCSIRequest, i64, i32, i32, i8, i8, %struct.iovec, %struct.QEMUIOVector, %struct.BlockAcctCookie }
%struct.SCSIRequest = type { ptr, ptr, ptr, i32, i32, i32, i16, i16, ptr, i64, %struct.SCSICommand, %struct.NotifierList, [252 x i8], i32, i8, i8, i8, i8, ptr, ptr, %union.anon.0 }
%struct.SCSICommand = type { [16 x i8], i32, i64, i64, i32 }
%struct.NotifierList = type { %struct.anon }
%struct.anon = type { ptr }
%union.anon.0 = type { %struct.QTailQLink }
%struct.iovec = type { ptr, i64 }
%struct.QEMUIOVector = type { ptr, i32, %union.anon.1 }
%union.anon.1 = type { %struct.anon.2 }
%struct.anon.2 = type { i32, %struct.iovec }
%struct.BlockAcctCookie = type { i64, i64, i32 }

; Function Attrs: nounwind sspstrong uwtable
define internal ptr @scsi_dma_readv(i64 noundef %offset, ptr noundef %iov, ptr noundef %cb, ptr noundef %cb_opaque, ptr noundef %opaque) #0 {
entry:
  %offset.addr = alloca i64, align 8
  %iov.addr = alloca ptr, align 8
  %cb.addr = alloca ptr, align 8
  %cb_opaque.addr = alloca ptr, align 8
  %opaque.addr = alloca ptr, align 8
  %r = alloca ptr, align 8
  %s = alloca ptr, align 8
  %tmp = alloca ptr, align 8
  %__mptr = alloca ptr, align 8
  %tmp1 = alloca ptr, align 8
  store i64 %offset, ptr %offset.addr, align 8
  store ptr %iov, ptr %iov.addr, align 8
  store ptr %cb, ptr %cb.addr, align 8
  store ptr %cb_opaque, ptr %cb_opaque.addr, align 8
  store ptr %opaque, ptr %opaque.addr, align 8
  %0 = load ptr, ptr %opaque.addr, align 8
  store ptr %0, ptr %r, align 8
  %1 = load ptr, ptr %r, align 8
  %req = getelementptr inbounds %struct.SCSIDiskReq, ptr %1, i32 0, i32 0
  %dev = getelementptr inbounds %struct.SCSIRequest, ptr %req, i32 0, i32 1
  %2 = load ptr, ptr %dev, align 8
  store ptr %2, ptr %__mptr, align 8
  %3 = load ptr, ptr %__mptr, align 8
  %add.ptr = getelementptr i8, ptr %3, i64 0
  store ptr %add.ptr, ptr %tmp1, align 8
  %4 = load ptr, ptr %tmp1, align 8
  store ptr %4, ptr %tmp, align 8
  %5 = load ptr, ptr %tmp, align 8
  store ptr %5, ptr %s, align 8
  %6 = load ptr, ptr %s, align 8
  %qdev = getelementptr inbounds %struct.SCSIDiskState, ptr %6, i32 0, i32 0
  %conf = getelementptr inbounds %struct.SCSIDevice, ptr %qdev, i32 0, i32 4
  %blk = getelementptr inbounds %struct.BlockConf, ptr %conf, i32 0, i32 0
  %7 = load ptr, ptr %blk, align 8
  %8 = load i64, ptr %offset.addr, align 8
  %9 = load ptr, ptr %iov.addr, align 8
  %10 = load ptr, ptr %cb.addr, align 8
  %11 = load ptr, ptr %cb_opaque.addr, align 8
  %call = call ptr @blk_aio_preadv(ptr noundef %7, i64 noundef %8, ptr noundef %9, i32 noundef 0, ptr noundef %10, ptr noundef %11)
  ret ptr %call
}