; Function Attrs: nounwind sspstrong uwtable
define internal ptr @scsi_dma_readv(i64 noundef %offset, ptr noundef %iov, ptr noundef %cb, ptr noundef %cb_opaque, ptr noundef readonly captures(none) %opaque) #0 {
entry:
  %dev = getelementptr inbounds nuw i8, ptr %opaque, i64 8
  %0 = load ptr, ptr %dev, align 8
  %conf = getelementptr inbounds nuw i8, ptr %0, i64 184
  %1 = load ptr, ptr %conf, align 8
  %call = tail call ptr @blk_aio_preadv(ptr noundef %1, i64 noundef %offset, ptr noundef %iov, i32 noundef 0, ptr noundef %cb, ptr noundef %cb_opaque) #18
  ret ptr %call
}